; Function Attrs: nounwind uwtable
define dso_local void @iterate_json_values(ptr noundef %0, i32 noundef %1, ptr noundef %2, ptr noundef %3) local_unnamed_addr #0 {
  %5 = alloca %struct.JsonLexContext, align 8
  call void @llvm.lifetime.start.p0(i64 120, ptr nonnull %5) #15
  %6 = tail call ptr @palloc0(i64 noundef 80) #15
  %7 = tail call ptr @palloc0(i64 noundef 32) #15
  %8 = tail call ptr @pg_detoast_datum_packed(ptr noundef %0) #15
  %9 = load i8, ptr %8, align 1
  %10 = zext i8 %9 to i32
  %11 = and i32 %10, 1
  %.not.i = icmp eq i32 %11, 0
  %12 = getelementptr inbounds nuw i8, ptr %8, i64 1
  %13 = icmp eq i8 %9, 1
  br i1 %13, label %14, label %22

14:                                               ; preds = %4
  %15 = load i8, ptr %12, align 1
  %16 = icmp eq i8 %15, 1
  %17 = and i8 %15, -2
  %18 = icmp eq i8 %17, 2
  %or.cond.i = or i1 %16, %18
  %19 = icmp eq i8 %15, 18
  %20 = select i1 %19, i64 16, i64 0
  %21 = select i1 %or.cond.i, i64 8, i64 %20
  br label %makeJsonLexContext.exit

22:                                               ; preds = %4
  br i1 %.not.i, label %27, label %23

23:                                               ; preds = %22
  %24 = lshr i32 %10, 1
  %25 = zext nneg i32 %24 to i64
  %26 = add nsw i64 %25, -1
  br label %makeJsonLexContext.exit

27:                                               ; preds = %22
  %28 = load i32, ptr %8, align 4
  %29 = lshr i32 %28, 2
  %30 = add nsw i32 %29, -4
  %31 = zext i32 %30 to i64
  br label %makeJsonLexContext.exit

makeJsonLexContext.exit:                          ; preds = %14, %23, %27
  %32 = phi i64 [ %21, %14 ], [ %26, %23 ], [ %31, %27 ]
  %33 = getelementptr inbounds nuw i8, ptr %8, i64 4
  %34 = select i1 %.not.i, ptr %33, ptr %12
  %35 = tail call i32 @GetDatabaseEncoding() #15
  %36 = call ptr @makeJsonLexContextCstringLen(ptr noundef nonnull %5, ptr noundef nonnull %34, i64 noundef %32, i32 noundef %35, i1 noundef zeroext true) #15
  store ptr %36, ptr %7, align 8
  %37 = getelementptr inbounds nuw i8, ptr %7, i64 8
  store ptr %3, ptr %37, align 8
  %38 = getelementptr inbounds nuw i8, ptr %7, i64 16
  store ptr %2, ptr %38, align 8
  %39 = getelementptr inbounds nuw i8, ptr %7, i64 24
  store i32 %1, ptr %39, align 8
  store ptr %7, ptr %6, align 8
  %40 = getelementptr inbounds nuw i8, ptr %6, i64 72
  store ptr @iterate_values_scalar, ptr %40, align 8
  %41 = getelementptr inbounds nuw i8, ptr %6, i64 40
  store ptr @iterate_values_object_field_start, ptr %41, align 8
  %42 = call i32 @pg_parse_json(ptr noundef nonnull %5, ptr noundef nonnull %6) #15
  %.not.i12 = icmp eq i32 %42, 0
  br i1 %.not.i12, label %pg_parse_json_or_errsave.exit, label %43

43:                                               ; preds = %makeJsonLexContext.exit
  call void @json_errsave_error(i32 noundef %42, ptr noundef nonnull %5, ptr noundef null)
  br label %pg_parse_json_or_errsave.exit

pg_parse_json_or_errsave.exit:                    ; preds = %makeJsonLexContext.exit, %43
  call void @freeJsonLexContext(ptr noundef nonnull %5) #15
  call void @llvm.lifetime.end.p0(i64 120, ptr nonnull %5) #15
  ret void
}